; Function Attrs: inlinehint mustprogress uwtable
define internal void @"_ZZN5arrow7compute8internal18RegisterVectorHashEPNS0_16FunctionRegistryEEN3$_08__invokeEPNS0_13KernelContextERKNS0_8ExecSpanEPNS0_10ExecResultE"(ptr dead_on_unwind noalias writable writeonly sret(%"class.arrow::Status") align 8 captures(none) initializes((0, 8)) %0, ptr readnone captures(none) %1, ptr noundef nonnull readonly align 8 captures(none) dereferenceable(32) %2, ptr noundef %3) #5 align 2 personality ptr @__gxx_personality_v0 {
  %5 = alloca %"class.std::shared_ptr.63", align 8
  %6 = getelementptr inbounds nuw i8, ptr %2, i64 8
  %.val = load ptr, ptr %6, align 8, !tbaa !195
  tail call void @llvm.experimental.noalias.scope.decl(metadata !451)
  call void @llvm.lifetime.start.p0(i64 16, ptr nonnull %5) #33, !noalias !451
  call void @_ZNK5arrow9ArraySpan11ToArrayDataEv(ptr dead_on_unwind nonnull writable sret(%"class.std::shared_ptr.63") align 8 %5, ptr noundef nonnull align 8 dereferenceable(128) %.val), !noalias !451
  %7 = call noundef nonnull align 8 dereferenceable(129) ptr @_ZNSt7variantIJN5arrow9ArraySpanESt10shared_ptrINS0_9ArrayDataEEEEaSIS4_EENSt9enable_ifIXaaaa14__exactly_onceINSt9_Nth_typeIX16__accepted_indexIOT_EEJS1_S4_EE4typeEE18is_constructible_vISC_S9_E15is_assignable_vIRSC_S9_EERS5_E4typeESA_(ptr noundef nonnull align 8 dereferenceable(129) %3, ptr noundef nonnull align 8 dereferenceable(16) %5) #33, !noalias !451
  %8 = getelementptr inbounds nuw i8, ptr %5, i64 8
  %9 = load ptr, ptr %8, align 8, !tbaa !81, !noalias !451
  %.not.i.i.i = icmp eq ptr %9, null
  br i1 %.not.i.i.i, label %"_ZZN5arrow7compute8internal18RegisterVectorHashEPNS0_16FunctionRegistryEENK3$_0clEPNS0_13KernelContextERKNS0_8ExecSpanEPNS0_10ExecResultE.exit", label %10

10:                                               ; preds = %4
  %11 = getelementptr inbounds nuw i8, ptr %9, i64 8
  %12 = load atomic i64, ptr %11 acquire, align 8, !noalias !451
  %13 = icmp eq i64 %12, 4294967297
  %14 = trunc i64 %12 to i32
  br i1 %13, label %15, label %23

15:                                               ; preds = %10
  store i32 0, ptr %11, align 8, !tbaa !76, !noalias !451
  %16 = getelementptr inbounds nuw i8, ptr %9, i64 12
  store i32 0, ptr %16, align 4, !tbaa !78, !noalias !451
  %17 = load ptr, ptr %9, align 8, !tbaa !79, !noalias !451
  %18 = getelementptr inbounds nuw i8, ptr %17, i64 16
  %19 = load ptr, ptr %18, align 8, !noalias !451
  call void %19(ptr noundef nonnull align 8 dereferenceable(16) %9) #33, !noalias !451
  %20 = load ptr, ptr %9, align 8, !tbaa !79, !noalias !451
  %21 = getelementptr inbounds nuw i8, ptr %20, i64 24
  %22 = load ptr, ptr %21, align 8, !noalias !451
  call void %22(ptr noundef nonnull align 8 dereferenceable(16) %9) #33, !noalias !451
  br label %"_ZZN5arrow7compute8internal18RegisterVectorHashEPNS0_16FunctionRegistryEENK3$_0clEPNS0_13KernelContextERKNS0_8ExecSpanEPNS0_10ExecResultE.exit"

23:                                               ; preds = %10
  %24 = load i8, ptr @__libc_single_threaded, align 1, !tbaa !39, !noalias !451
  %.not.i.i.i.i = icmp eq i8 %24, 0
  br i1 %.not.i.i.i.i, label %27, label %25

25:                                               ; preds = %23
  %26 = add nsw i32 %14, -1
  store i32 %26, ptr %11, align 4, !tbaa !115, !noalias !451
  br label %_ZN9__gnu_cxx27__exchange_and_add_dispatchEPii.exit.i.i.i.i

27:                                               ; preds = %23
  %28 = atomicrmw volatile add ptr %11, i32 -1 acq_rel, align 4, !noalias !451
  br label %_ZN9__gnu_cxx27__exchange_and_add_dispatchEPii.exit.i.i.i.i

_ZN9__gnu_cxx27__exchange_and_add_dispatchEPii.exit.i.i.i.i: ; preds = %27, %25
  %.0.i.i.i.i.i = phi i32 [ %14, %25 ], [ %28, %27 ]
  %29 = icmp eq i32 %.0.i.i.i.i.i, 1
  br i1 %29, label %30, label %"_ZZN5arrow7compute8internal18RegisterVectorHashEPNS0_16FunctionRegistryEENK3$_0clEPNS0_13KernelContextERKNS0_8ExecSpanEPNS0_10ExecResultE.exit", !prof !127

30:                                               ; preds = %_ZN9__gnu_cxx27__exchange_and_add_dispatchEPii.exit.i.i.i.i
  call void @_ZNSt16_Sp_counted_baseILN9__gnu_cxx12_Lock_policyE2EE24_M_release_last_use_coldEv(ptr noundef nonnull align 8 dereferenceable(16) %9) #33, !noalias !451
  br label %"_ZZN5arrow7compute8internal18RegisterVectorHashEPNS0_16FunctionRegistryEENK3$_0clEPNS0_13KernelContextERKNS0_8ExecSpanEPNS0_10ExecResultE.exit"

"_ZZN5arrow7compute8internal18RegisterVectorHashEPNS0_16FunctionRegistryEENK3$_0clEPNS0_13KernelContextERKNS0_8ExecSpanEPNS0_10ExecResultE.exit": ; preds = %4, %15, %_ZN9__gnu_cxx27__exchange_and_add_dispatchEPii.exit.i.i.i.i, %30
  call void @llvm.lifetime.end.p0(i64 16, ptr nonnull %5) #33, !noalias !451
  store ptr null, ptr %0, align 8, !tbaa !131, !alias.scope !454
  ret void
}